; Function Attrs: mustprogress uwtable
define void @_ZN7rocksdb18WriteUnpreparedTxn19FlushWriteBatchToDBEb(ptr dead_on_unwind noalias writable sret(%"class.rocksdb::Status") align 8 %0, ptr noundef nonnull align 8 dereferenceable(848) %1, i1 noundef zeroext %2) local_unnamed_addr #4 align 2 {
  br i1 %2, label %20, label %4

4:                                                ; preds = %3
  %5 = getelementptr inbounds nuw i8, ptr %1, i64 760
  %6 = load ptr, ptr %5, align 8, !tbaa !291
  %.not = icmp eq ptr %6, null
  br i1 %.not, label %20, label %7

7:                                                ; preds = %4
  %8 = load i64, ptr %6, align 8, !tbaa !292
  %9 = getelementptr inbounds nuw i8, ptr %6, i64 80
  %10 = getelementptr inbounds nuw i8, ptr %6, i64 88
  %11 = load ptr, ptr %10, align 8, !tbaa !294
  %12 = load ptr, ptr %9, align 8, !tbaa !293
  %13 = ptrtoint ptr %11 to i64
  %14 = ptrtoint ptr %12 to i64
  %15 = sub i64 %13, %14
  %16 = ashr exact i64 %15, 3
  %17 = sub i64 0, %8
  %18 = icmp eq i64 %16, %17
  br i1 %18, label %20, label %19

19:                                               ; preds = %7
  tail call void @_ZN7rocksdb18WriteUnpreparedTxn32FlushWriteBatchWithSavePointToDBEv(ptr dead_on_unwind writable sret(%"class.rocksdb::Status") align 8 %0, ptr noundef nonnull align 8 dereferenceable(848) %1)
  br label %21

20:                                               ; preds = %7, %4, %3
  tail call void @_ZN7rocksdb18WriteUnpreparedTxn27FlushWriteBatchToDBInternalEb(ptr dead_on_unwind writable sret(%"class.rocksdb::Status") align 8 %0, ptr noundef nonnull align 8 dereferenceable(848) %1, i1 noundef zeroext %2)
  br label %21

21:                                               ; preds = %20, %19
  ret void
}